; Function Attrs: mustprogress uwtable
define noundef double @_ZNK8QuantLib21AnalyticBarrierEngine16riskFreeDiscountEv(ptr nocapture noundef nonnull readonly align 8 dereferenceable(440) %this) local_unnamed_addr #8 align 2 {
entry:
  %ref.tmp = alloca %"class.QuantLib::Date", align 8
  %process_ = getelementptr inbounds nuw i8, ptr %this, i64 360
  %0 = load ptr, ptr %process_, align 8, !tbaa !39
  %cmp.not.i = icmp eq ptr %0, null
  br i1 %cmp.not.i, label %cond.false.i, label %_ZNK5boost10shared_ptrIN8QuantLib30GeneralizedBlackScholesProcessEEptEv.exit, !prof !71

cond.false.i:                                     ; preds = %entry
  tail call void @_ZN5boost16assertion_failedEPKcS1_S1_l(ptr noundef nonnull @.str.19, ptr noundef nonnull @__PRETTY_FUNCTION__._ZNK5boost10shared_ptrIN8QuantLib30GeneralizedBlackScholesProcessEEptEv, ptr noundef nonnull @.str.20, i64 noundef 784)
  %.pre.i = load ptr, ptr %process_, align 8, !tbaa !39
  br label %_ZNK5boost10shared_ptrIN8QuantLib30GeneralizedBlackScholesProcessEEptEv.exit

_ZNK5boost10shared_ptrIN8QuantLib30GeneralizedBlackScholesProcessEEptEv.exit: ; preds = %entry, %cond.false.i
  %1 = phi ptr [ %0, %entry ], [ %.pre.i, %cond.false.i ]
  %call2 = tail call noundef nonnull align 8 dereferenceable(16) ptr @_ZNK8QuantLib30GeneralizedBlackScholesProcess12riskFreeRateEv(ptr noundef nonnull align 8 dereferenceable(250) %1)
  %call3 = tail call noundef nonnull align 8 dereferenceable(16) ptr @_ZNK8QuantLib6HandleINS_18YieldTermStructureEEptEv(ptr noundef nonnull align 8 dereferenceable(16) %call2)
  %2 = load ptr, ptr %call3, align 8, !tbaa !115
  %cmp.not.i1 = icmp eq ptr %2, null
  br i1 %cmp.not.i1, label %cond.false.i2, label %_ZNK5boost10shared_ptrIN8QuantLib18YieldTermStructureEEptEv.exit, !prof !71

cond.false.i2:                                    ; preds = %_ZNK5boost10shared_ptrIN8QuantLib30GeneralizedBlackScholesProcessEEptEv.exit
  tail call void @_ZN5boost16assertion_failedEPKcS1_S1_l(ptr noundef nonnull @.str.19, ptr noundef nonnull @__PRETTY_FUNCTION__._ZNK5boost10shared_ptrIN8QuantLib18YieldTermStructureEEptEv, ptr noundef nonnull @.str.20, i64 noundef 784)
  %.pre.i3 = load ptr, ptr %call3, align 8, !tbaa !115
  br label %_ZNK5boost10shared_ptrIN8QuantLib18YieldTermStructureEEptEv.exit

_ZNK5boost10shared_ptrIN8QuantLib18YieldTermStructureEEptEv.exit: ; preds = %_ZNK5boost10shared_ptrIN8QuantLib30GeneralizedBlackScholesProcessEEptEv.exit, %cond.false.i2
  %3 = phi ptr [ %2, %_ZNK5boost10shared_ptrIN8QuantLib30GeneralizedBlackScholesProcessEEptEv.exit ], [ %.pre.i3, %cond.false.i2 ]
  call void @llvm.lifetime.start.p0(i64 8, ptr nonnull %ref.tmp) #27
  %exercise = getelementptr inbounds nuw i8, ptr %this, i64 136
  %4 = load ptr, ptr %exercise, align 8, !tbaa !69
  %cmp.not.i4 = icmp eq ptr %4, null
  br i1 %cmp.not.i4, label %cond.false.i5, label %_ZNK5boost10shared_ptrIN8QuantLib8ExerciseEEptEv.exit, !prof !71

cond.false.i5:                                    ; preds = %_ZNK5boost10shared_ptrIN8QuantLib18YieldTermStructureEEptEv.exit
  tail call void @_ZN5boost16assertion_failedEPKcS1_S1_l(ptr noundef nonnull @.str.19, ptr noundef nonnull @__PRETTY_FUNCTION__._ZNK5boost10shared_ptrIN8QuantLib8ExerciseEEptEv, ptr noundef nonnull @.str.20, i64 noundef 784)
  %.pre.i6 = load ptr, ptr %exercise, align 8, !tbaa !69
  br label %_ZNK5boost10shared_ptrIN8QuantLib8ExerciseEEptEv.exit

_ZNK5boost10shared_ptrIN8QuantLib8ExerciseEEptEv.exit: ; preds = %_ZNK5boost10shared_ptrIN8QuantLib18YieldTermStructureEEptEv.exit, %cond.false.i5
  %5 = phi ptr [ %4, %_ZNK5boost10shared_ptrIN8QuantLib18YieldTermStructureEEptEv.exit ], [ %.pre.i6, %cond.false.i5 ]
  %call6 = tail call i64 @_ZNK8QuantLib8Exercise8lastDateEv(ptr noundef nonnull align 8 dereferenceable(36) %5)
  store i64 %call6, ptr %ref.tmp, align 8
  %call.i = call noundef double @_ZNK8QuantLib13TermStructure17timeFromReferenceERKNS_4DateE(ptr noundef nonnull align 8 dereferenceable(64) %3, ptr noundef nonnull align 8 dereferenceable(8) %ref.tmp)
  %call2.i = call noundef double @_ZNK8QuantLib18YieldTermStructure8discountEdb(ptr noundef nonnull align 8 dereferenceable(152) %3, double noundef %call.i, i1 noundef zeroext false)
  call void @llvm.lifetime.end.p0(i64 8, ptr nonnull %ref.tmp) #27
  ret double %call2.i
}